target datalayout = "e-m:e-p270:32:32-p271:32:32-p272:64:64-i64:64-i128:128-f80:128-n8:16:32:64-S128"
target triple = "x86_64-pc-linux-gnu"

%struct._object = type { %union.anon, ptr }
%union.anon = type { i64 }
%struct._typeobject = type opaque
%struct.anon = type { i32, i32 }

@_Py_NoneStruct = external global %struct._object, align 8
@PyBytes_Type = external global %struct._typeobject, align 1
@.str.17 = private unnamed_addr constant [44 x i8] c"../cpython/Modules/_testlimitedcapi/bytes.c\00", align 1
@.str.23 = private unnamed_addr constant [5 x i8] c"OO|p\00", align 1
@.str.24 = private unnamed_addr constant [13 x i8] c"left != NULL\00", align 1
@__PRETTY_FUNCTION__.bytes_concat = private unnamed_addr constant [47 x i8] c"PyObject *bytes_concat(PyObject *, PyObject *)\00", align 1
@.str.25 = private unnamed_addr constant [25 x i8] c"PyBytes_CheckExact(left)\00", align 1

; Function Attrs: alwaysinline nounwind uwtable
define internal void @Py_INCREF(ptr noundef %0) #5 {
  %2 = alloca ptr, align 8
  %3 = alloca i32, align 4
  %4 = alloca i32, align 4
  store ptr %0, ptr %2, align 8, !tbaa !3
  call void @llvm.lifetime.start.p0(i64 4, ptr %3) #6
  %5 = load ptr, ptr %2, align 8, !tbaa !3
  %6 = getelementptr inbounds nuw %struct._object, ptr %5, i32 0, i32 0
  %7 = getelementptr inbounds nuw %struct.anon, ptr %6, i32 0, i32 0
  %8 = load i32, ptr %7, align 8, !tbaa !18
  store i32 %8, ptr %3, align 4, !tbaa !12
  %9 = load i32, ptr %3, align 4, !tbaa !12
  %10 = icmp slt i32 %9, 0
  br i1 %10, label %11, label %12

11:                                               ; preds = %1
  store i32 1, ptr %4, align 4
  br label %18

12:                                               ; preds = %1
  %13 = load i32, ptr %3, align 4, !tbaa !12
  %14 = add i32 %13, 1
  %15 = load ptr, ptr %2, align 8, !tbaa !3
  %16 = getelementptr inbounds nuw %struct._object, ptr %15, i32 0, i32 0
  %17 = getelementptr inbounds nuw %struct.anon, ptr %16, i32 0, i32 0
  store i32 %14, ptr %17, align 8, !tbaa !18
  store i32 0, ptr %4, align 4
  br label %18

18:                                               ; preds = %12, %11
  call void @llvm.lifetime.end.p0(i64 4, ptr %3) #6
  %19 = load i32, ptr %4, align 4
  switch i32 %19, label %21 [
    i32 0, label %20
    i32 1, label %20
  ]

20:                                               ; preds = %18, %18
  ret void

21:                                               ; preds = %18
  unreachable
}

; Function Attrs: inlinehint nounwind uwtable
define internal ptr @_Py_TYPE(ptr noundef %0) #2 {
  %2 = alloca ptr, align 8
  store ptr %0, ptr %2, align 8, !tbaa !3
  %3 = load ptr, ptr %2, align 8, !tbaa !3
  %4 = getelementptr inbounds nuw %struct._object, ptr %3, i32 0, i32 1
  %5 = load ptr, ptr %4, align 8, !tbaa !16
  ret ptr %5
}

; Function Attrs: inlinehint nounwind uwtable
define internal void @Py_XINCREF(ptr noundef %0) #2 {
  %2 = alloca ptr, align 8
  store ptr %0, ptr %2, align 8, !tbaa !3
  %3 = load ptr, ptr %2, align 8, !tbaa !3
  %4 = icmp ne ptr %3, null
  br i1 %4, label %5, label %7

5:                                                ; preds = %1
  %6 = load ptr, ptr %2, align 8, !tbaa !3
  call void @Py_INCREF(ptr noundef %6)
  br label %7

7:                                                ; preds = %5, %1
  ret void
}

; Function Attrs: inlinehint nounwind uwtable
define internal i32 @Py_IS_TYPE(ptr noundef %0, ptr noundef %1) #2 {
  %3 = alloca ptr, align 8
  %4 = alloca ptr, align 8
  store ptr %0, ptr %3, align 8, !tbaa !3
  store ptr %1, ptr %4, align 8, !tbaa !14
  %5 = load ptr, ptr %3, align 8, !tbaa !3
  %6 = call ptr @_Py_TYPE(ptr noundef %5)
  %7 = load ptr, ptr %4, align 8, !tbaa !14
  %8 = icmp eq ptr %6, %7
  %9 = zext i1 %8 to i32
  ret i32 %9
}

; Function Attrs: nounwind uwtable
define internal ptr @bytes_concat(ptr noundef %0, ptr noundef %1) #0 {
  %3 = alloca ptr, align 8
  %4 = alloca ptr, align 8
  %5 = alloca ptr, align 8
  %6 = alloca ptr, align 8
  %7 = alloca ptr, align 8
  %8 = alloca i32, align 4
  %9 = alloca i32, align 4
  store ptr %0, ptr %4, align 8, !tbaa !3
  store ptr %1, ptr %5, align 8, !tbaa !3
  call void @llvm.lifetime.start.p0(i64 8, ptr %6) #6
  call void @llvm.lifetime.start.p0(i64 8, ptr %7) #6
  call void @llvm.lifetime.start.p0(i64 4, ptr %8) #6
  store i32 0, ptr %8, align 4, !tbaa !12
  %10 = load ptr, ptr %5, align 8, !tbaa !3
  %11 = call i32 (ptr, ptr, ...) @PyArg_ParseTuple(ptr noundef %10, ptr noundef @.str.23, ptr noundef %6, ptr noundef %7, ptr noundef %8)
  %12 = icmp ne i32 %11, 0
  br i1 %12, label %14, label %13

13:                                               ; preds = %2
  store ptr null, ptr %3, align 8
  store i32 1, ptr %9, align 4
  br label %66

14:                                               ; preds = %2
  br label %15

15:                                               ; preds = %14
  %16 = load ptr, ptr %6, align 8, !tbaa !3
  %17 = icmp eq ptr %16, @_Py_NoneStruct
  br i1 %17, label %18, label %19

18:                                               ; preds = %15
  store ptr null, ptr %6, align 8, !tbaa !3
  br label %19

19:                                               ; preds = %18, %15
  br label %20

20:                                               ; preds = %19
  br label %21

21:                                               ; preds = %20
  br label %22

22:                                               ; preds = %21
  %23 = load ptr, ptr %7, align 8, !tbaa !3
  %24 = icmp eq ptr %23, @_Py_NoneStruct
  br i1 %24, label %25, label %26

25:                                               ; preds = %22
  store ptr null, ptr %7, align 8, !tbaa !3
  br label %26

26:                                               ; preds = %25, %22
  br label %27

27:                                               ; preds = %26
  br label %28

28:                                               ; preds = %27
  %29 = load i32, ptr %8, align 4, !tbaa !12
  %30 = icmp ne i32 %29, 0
  br i1 %30, label %31, label %54

31:                                               ; preds = %28
  %32 = load ptr, ptr %6, align 8, !tbaa !3
  %33 = icmp ne ptr %32, null
  br i1 %33, label %34, label %35

34:                                               ; preds = %31
  br label %37

35:                                               ; preds = %31
  call void @__assert_fail(ptr noundef @.str.24, ptr noundef @.str.17, i32 noundef 161, ptr noundef @__PRETTY_FUNCTION__.bytes_concat) #7
  unreachable

36:                                               ; No predecessors!
  br label %37

37:                                               ; preds = %36, %34
  %38 = load ptr, ptr %6, align 8, !tbaa !3
  %39 = call i32 @Py_IS_TYPE(ptr noundef %38, ptr noundef @PyBytes_Type)
  %40 = icmp ne i32 %39, 0
  br i1 %40, label %41, label %42

41:                                               ; preds = %37
  br label %44

42:                                               ; preds = %37
  call void @__assert_fail(ptr noundef @.str.25, ptr noundef @.str.17, i32 noundef 162, ptr noundef @__PRETTY_FUNCTION__.bytes_concat) #7
  unreachable

43:                                               ; No predecessors!
  br label %44

44:                                               ; preds = %43, %41
  %45 = load ptr, ptr %6, align 8, !tbaa !3
  %46 = call ptr @PyBytes_AsString(ptr noundef %45)
  %47 = load ptr, ptr %6, align 8, !tbaa !3
  %48 = call i64 @PyBytes_Size(ptr noundef %47)
  %49 = call ptr @PyBytes_FromStringAndSize(ptr noundef %46, i64 noundef %48)
  store ptr %49, ptr %6, align 8, !tbaa !3
  %50 = load ptr, ptr %6, align 8, !tbaa !3
  %51 = icmp eq ptr %50, null
  br i1 %51, label %52, label %53

52:                                               ; preds = %44
  store ptr null, ptr %3, align 8
  store i32 1, ptr %9, align 4
  br label %66

53:                                               ; preds = %44
  br label %56

54:                                               ; preds = %28
  %55 = load ptr, ptr %6, align 8, !tbaa !3
  call void @Py_XINCREF(ptr noundef %55)
  br label %56

56:                                               ; preds = %54, %53
  %57 = load ptr, ptr %7, align 8, !tbaa !3
  call void @PyBytes_Concat(ptr noundef %6, ptr noundef %57)
  %58 = load ptr, ptr %6, align 8, !tbaa !3
  %59 = icmp eq ptr %58, null
  br i1 %59, label %60, label %64

60:                                               ; preds = %56
  %61 = call ptr @PyErr_Occurred()
  %62 = icmp ne ptr %61, null
  br i1 %62, label %64, label %63

63:                                               ; preds = %60
  store ptr @_Py_NoneStruct, ptr %3, align 8
  store i32 1, ptr %9, align 4
  br label %66

64:                                               ; preds = %60, %56
  %65 = load ptr, ptr %6, align 8, !tbaa !3
  store ptr %65, ptr %3, align 8
  store i32 1, ptr %9, align 4
  br label %66

66:                                               ; preds = %64, %63, %52, %13
  call void @llvm.lifetime.end.p0(i64 4, ptr %8) #6
  call void @llvm.lifetime.end.p0(i64 8, ptr %7) #6
  call void @llvm.lifetime.end.p0(i64 8, ptr %6) #6
  %67 = load ptr, ptr %3, align 8
  ret ptr %67
}